target datalayout = "e-m:e-p270:32:32-p271:32:32-p272:64:64-i64:64-i128:128-f80:128-n8:16:32:64-S128"
target triple = "x86_64-pc-linux-gnu"

%"class.Assimp::ASE::Parser" = type <{ ptr, ptr, %struct.aiColor3D, %struct.aiColor3D, %"class.std::vector", %"class.std::vector.0", %"class.std::vector.5", %"class.std::vector.10", %"class.std::vector.15", i32, i32, i32, i32, i32, i8, [3 x i8], i32, [4 x i8] }>
%struct.aiColor3D = type { float, float, float }
%"class.std::vector" = type { %"struct.std::_Vector_base" }
%"struct.std::_Vector_base" = type { %"struct.std::_Vector_base<Assimp::ASE::Material, std::allocator<Assimp::ASE::Material>>::_Vector_impl" }
%"struct.std::_Vector_base<Assimp::ASE::Material, std::allocator<Assimp::ASE::Material>>::_Vector_impl" = type { %"struct.std::_Vector_base<Assimp::ASE::Material, std::allocator<Assimp::ASE::Material>>::_Vector_impl_data" }
%"struct.std::_Vector_base<Assimp::ASE::Material, std::allocator<Assimp::ASE::Material>>::_Vector_impl_data" = type { ptr, ptr, ptr }
%"class.std::vector.0" = type { %"struct.std::_Vector_base.1" }
%"struct.std::_Vector_base.1" = type { %"struct.std::_Vector_base<Assimp::ASE::Mesh, std::allocator<Assimp::ASE::Mesh>>::_Vector_impl" }
%"struct.std::_Vector_base<Assimp::ASE::Mesh, std::allocator<Assimp::ASE::Mesh>>::_Vector_impl" = type { %"struct.std::_Vector_base<Assimp::ASE::Mesh, std::allocator<Assimp::ASE::Mesh>>::_Vector_impl_data" }
%"struct.std::_Vector_base<Assimp::ASE::Mesh, std::allocator<Assimp::ASE::Mesh>>::_Vector_impl_data" = type { ptr, ptr, ptr }
%"class.std::vector.5" = type { %"struct.std::_Vector_base.6" }
%"struct.std::_Vector_base.6" = type { %"struct.std::_Vector_base<Assimp::ASE::Dummy, std::allocator<Assimp::ASE::Dummy>>::_Vector_impl" }
%"struct.std::_Vector_base<Assimp::ASE::Dummy, std::allocator<Assimp::ASE::Dummy>>::_Vector_impl" = type { %"struct.std::_Vector_base<Assimp::ASE::Dummy, std::allocator<Assimp::ASE::Dummy>>::_Vector_impl_data" }
%"struct.std::_Vector_base<Assimp::ASE::Dummy, std::allocator<Assimp::ASE::Dummy>>::_Vector_impl_data" = type { ptr, ptr, ptr }
%"class.std::vector.10" = type { %"struct.std::_Vector_base.11" }
%"struct.std::_Vector_base.11" = type { %"struct.std::_Vector_base<Assimp::ASE::Light, std::allocator<Assimp::ASE::Light>>::_Vector_impl" }
%"struct.std::_Vector_base<Assimp::ASE::Light, std::allocator<Assimp::ASE::Light>>::_Vector_impl" = type { %"struct.std::_Vector_base<Assimp::ASE::Light, std::allocator<Assimp::ASE::Light>>::_Vector_impl_data" }
%"struct.std::_Vector_base<Assimp::ASE::Light, std::allocator<Assimp::ASE::Light>>::_Vector_impl_data" = type { ptr, ptr, ptr }
%"class.std::vector.15" = type { %"struct.std::_Vector_base.16" }
%"struct.std::_Vector_base.16" = type { %"struct.std::_Vector_base<Assimp::ASE::Camera, std::allocator<Assimp::ASE::Camera>>::_Vector_impl" }
%"struct.std::_Vector_base<Assimp::ASE::Camera, std::allocator<Assimp::ASE::Camera>>::_Vector_impl" = type { %"struct.std::_Vector_base<Assimp::ASE::Camera, std::allocator<Assimp::ASE::Camera>>::_Vector_impl_data" }
%"struct.std::_Vector_base<Assimp::ASE::Camera, std::allocator<Assimp::ASE::Camera>>::_Vector_impl_data" = type { ptr, ptr, ptr }

@.str = private unnamed_addr constant [12 x i8] c"Line %u: %s\00", align 1
@_ZTI17DeadlyImportError = linkonce_odr constant { ptr, ptr, ptr } { ptr getelementptr inbounds (ptr, ptr @_ZTVN10__cxxabiv120__si_class_type_infoE, i64 2), ptr @_ZTS17DeadlyImportError, ptr @_ZTI15DeadlyErrorBase }, comdat, align 8

; Function Attrs: mustprogress noreturn uwtable
define hidden void @_ZN6Assimp3ASE6Parser8LogErrorEPKc(ptr noundef nonnull align 8 dereferenceable(188) %0, ptr noundef %1) #6 align 2 personality ptr @__gxx_personality_v0 {
  %3 = alloca ptr, align 8
  %4 = alloca ptr, align 8
  %5 = alloca [1024 x i8], align 16
  %6 = alloca ptr, align 8
  %7 = alloca i32, align 4
  store ptr %0, ptr %3, align 8
  store ptr %1, ptr %4, align 8
  %8 = load ptr, ptr %3, align 8
  call void @llvm.lifetime.start.p0(i64 1024, ptr %5) #20
  %9 = getelementptr inbounds [1024 x i8], ptr %5, i64 0, i64 0
  %10 = getelementptr inbounds nuw %"class.Assimp::ASE::Parser", ptr %8, i32 0, i32 9
  %11 = load i32, ptr %10, align 8
  %12 = load ptr, ptr %4, align 8
  %13 = call i32 (ptr, i64, ptr, ...) @snprintf(ptr noundef %9, i64 noundef 1024, ptr noundef @.str, i32 noundef %11, ptr noundef %12) #20
  %14 = call ptr @__cxa_allocate_exception(i64 16) #20
  invoke void @_ZN17DeadlyImportErrorC2IJRA1024_cEEEDpOT_(ptr noundef nonnull align 8 dereferenceable(16) %14, ptr noundef nonnull align 1 dereferenceable(1024) %5)
          to label %15 unwind label %16

15:                                               ; preds = %2
  call void @__cxa_throw(ptr %14, ptr @_ZTI17DeadlyImportError, ptr @_ZNSt13runtime_errorD2Ev) #22
  unreachable

16:                                               ; preds = %2
  %17 = landingpad { ptr, i32 }
          cleanup
  %18 = extractvalue { ptr, i32 } %17, 0
  store ptr %18, ptr %6, align 8
  %19 = extractvalue { ptr, i32 } %17, 1
  store i32 %19, ptr %7, align 4
  call void @__cxa_free_exception(ptr %14) #20
  call void @llvm.lifetime.end.p0(i64 1024, ptr %5) #20
  br label %20

20:                                               ; preds = %16
  %21 = load ptr, ptr %6, align 8
  %22 = load i32, ptr %7, align 4
  %23 = insertvalue { ptr, i32 } poison, ptr %21, 0
  %24 = insertvalue { ptr, i32 } %23, i32 %22, 1
  resume { ptr, i32 } %24
}