; Function Attrs: mustprogress noreturn uwtable
define hidden void @_ZN6Assimp3ASE6Parser8LogErrorEPKc(ptr noundef nonnull readonly align 8 captures(none) dereferenceable(188) %0, ptr noundef %1) local_unnamed_addr #5 align 2 personality ptr @__gxx_personality_v0 {
  %3 = alloca [1024 x i8], align 16
  call void @llvm.lifetime.start.p0(i64 1024, ptr nonnull %3) #28
  %4 = getelementptr inbounds nuw i8, ptr %0, i64 160
  %5 = load i32, ptr %4, align 8
  %6 = call i32 (ptr, i64, ptr, ...) @snprintf(ptr noundef nonnull dereferenceable(1) %3, i64 noundef 1024, ptr noundef nonnull @.str, i32 noundef %5, ptr noundef %1) #28
  %7 = tail call ptr @__cxa_allocate_exception(i64 16) #28
  invoke void @_ZN17DeadlyImportErrorC2IJRA1024_cEEEDpOT_(ptr noundef nonnull align 8 dereferenceable(16) %7, ptr noundef nonnull align 1 dereferenceable(1024) %3)
          to label %8 unwind label %9

8:                                                ; preds = %2
  call void @__cxa_throw(ptr nonnull %7, ptr nonnull @_ZTI17DeadlyImportError, ptr nonnull @_ZNSt13runtime_errorD2Ev) #30
  unreachable

9:                                                ; preds = %2
  %10 = landingpad { ptr, i32 }
          cleanup
  call void @__cxa_free_exception(ptr nonnull %7) #28
  call void @llvm.lifetime.end.p0(i64 1024, ptr nonnull %3) #28
  resume { ptr, i32 } %10
}